; ModuleID = 'source-C-CXX/18/2579.c'
source_filename = "source-C-CXX/18/2579.c"
target datalayout = "e-m:e-p270:32:32-p271:32:32-p272:64:64-i64:64-f80:128-n8:16:32:64-S128"
target triple = "x86_64-pc-linux-gnu"

@.str = private unnamed_addr constant [4 x i8] c"%s \00", align 1
@.str.1 = private unnamed_addr constant [3 x i8] c"%s\00", align 1

; Function Attrs: nounwind sspstrong uwtable
define dso_local i32 @main() local_unnamed_addr #0 {
  %1 = alloca [5000 x i8], align 16
  %2 = alloca [1000 x [1000 x i8]], align 16
  %3 = alloca [1000 x i8], align 16
  %4 = alloca [1000 x i8], align 16
  %5 = getelementptr inbounds [5000 x i8], [5000 x i8]* %1, i64 0, i64 0
  call void @llvm.lifetime.start.p0i8(i64 5000, i8* nonnull %5) #6
  %6 = getelementptr inbounds [1000 x [1000 x i8]], [1000 x [1000 x i8]]* %2, i64 0, i64 0, i64 0
  call void @llvm.lifetime.start.p0i8(i64 1000000, i8* nonnull %6) #6
  %7 = getelementptr inbounds [1000 x i8], [1000 x i8]* %3, i64 0, i64 0
  call void @llvm.lifetime.start.p0i8(i64 1000, i8* nonnull %7) #6
  %8 = getelementptr inbounds [1000 x i8], [1000 x i8]* %4, i64 0, i64 0
  call void @llvm.lifetime.start.p0i8(i64 1000, i8* nonnull %8) #6
  %9 = call i32 (i8*, ...) bitcast (i32 (...)* @gets to i32 (i8*, ...)*)(i8* nonnull %5) #6
  %10 = call i32 (i8*, ...) bitcast (i32 (...)* @gets to i32 (i8*, ...)*)(i8* nonnull %7) #6
  %11 = call i32 (i8*, ...) bitcast (i32 (...)* @gets to i32 (i8*, ...)*)(i8* nonnull %8) #6
  %12 = call i64 @strlen(i8* noundef nonnull %5) #7
  %13 = trunc i64 %12 to i32
  %14 = icmp sgt i32 %13, 0
  br i1 %14, label %15, label %19

15:                                               ; preds = %0
  %16 = and i64 %12, 4294967295
  br label %23

17:                                               ; preds = %43
  %18 = icmp slt i32 %45, 0
  br i1 %18, label %69, label %19

19:                                               ; preds = %0, %17
  %20 = phi i32 [ %45, %17 ], [ 0, %0 ]
  %21 = add nuw i32 %20, 1
  %22 = zext i32 %21 to i64
  br label %53

23:                                               ; preds = %15, %43
  %24 = phi i64 [ 0, %15 ], [ %47, %43 ]
  %25 = phi i32 [ undef, %15 ], [ %46, %43 ]
  %26 = phi i32 [ 0, %15 ], [ %45, %43 ]
  %27 = phi i32 [ 0, %15 ], [ %44, %43 ]
  %28 = getelementptr inbounds [5000 x i8], [5000 x i8]* %1, i64 0, i64 %24
  %29 = load i8, i8* %28, align 1, !tbaa !5
  %30 = icmp eq i8 %29, 32
  br i1 %30, label %36, label %31

31:                                               ; preds = %23
  %32 = sext i32 %26 to i64
  %33 = sext i32 %27 to i64
  %34 = getelementptr inbounds [1000 x [1000 x i8]], [1000 x [1000 x i8]]* %2, i64 0, i64 %32, i64 %33
  store i8 %29, i8* %34, align 1, !tbaa !5
  %35 = add nsw i32 %27, 1
  br label %43

36:                                               ; preds = %23
  %37 = icmp eq i32 %25, 1
  br i1 %37, label %38, label %43

38:                                               ; preds = %36
  %39 = sext i32 %26 to i64
  %40 = sext i32 %27 to i64
  %41 = getelementptr inbounds [1000 x [1000 x i8]], [1000 x [1000 x i8]]* %2, i64 0, i64 %39, i64 %40
  store i8 0, i8* %41, align 1, !tbaa !5
  %42 = add nsw i32 %26, 1
  br label %43

43:                                               ; preds = %31, %36, %38
  %44 = phi i32 [ 0, %38 ], [ %27, %36 ], [ %35, %31 ]
  %45 = phi i32 [ %42, %38 ], [ %26, %36 ], [ %26, %31 ]
  %46 = phi i32 [ 0, %38 ], [ %25, %36 ], [ 1, %31 ]
  %47 = add nuw nsw i64 %24, 1
  %48 = icmp eq i64 %47, %16
  br i1 %48, label %17, label %23, !llvm.loop !8

49:                                               ; preds = %60
  %50 = icmp sgt i32 %20, 0
  br i1 %50, label %51, label %69

51:                                               ; preds = %49
  %52 = zext i32 %20 to i64
  br label %63

53:                                               ; preds = %19, %60
  %54 = phi i64 [ 0, %19 ], [ %61, %60 ]
  %55 = getelementptr inbounds [1000 x [1000 x i8]], [1000 x [1000 x i8]]* %2, i64 0, i64 %54, i64 0
  %56 = call i32 @strcmp(i8* noundef nonnull %7, i8* noundef nonnull %55) #7
  %57 = icmp eq i32 %56, 0
  br i1 %57, label %58, label %60

58:                                               ; preds = %53
  %59 = call i8* @strcpy(i8* noundef nonnull %55, i8* noundef nonnull %8) #6
  br label %60

60:                                               ; preds = %53, %58
  %61 = add nuw nsw i64 %54, 1
  %62 = icmp eq i64 %61, %22
  br i1 %62, label %49, label %53, !llvm.loop !10

63:                                               ; preds = %51, %63
  %64 = phi i64 [ 0, %51 ], [ %67, %63 ]
  %65 = getelementptr inbounds [1000 x [1000 x i8]], [1000 x [1000 x i8]]* %2, i64 0, i64 %64, i64 0
  %66 = call i32 (i8*, ...) @printf(i8* nonnull dereferenceable(1) getelementptr inbounds ([4 x i8], [4 x i8]* @.str, i64 0, i64 0), i8* nonnull %65)
  %67 = add nuw nsw i64 %64, 1
  %68 = icmp eq i64 %67, %52
  br i1 %68, label %69, label %63, !llvm.loop !11

69:                                               ; preds = %63, %17, %49
  %70 = phi i32 [ 0, %49 ], [ 0, %17 ], [ %20, %63 ]
  %71 = zext i32 %70 to i64
  %72 = getelementptr inbounds [1000 x [1000 x i8]], [1000 x [1000 x i8]]* %2, i64 0, i64 %71, i64 0
  %73 = call i32 (i8*, ...) @printf(i8* nonnull dereferenceable(1) getelementptr inbounds ([3 x i8], [3 x i8]* @.str.1, i64 0, i64 0), i8* nonnull %72)
  call void @llvm.lifetime.end.p0i8(i64 1000, i8* nonnull %8) #6
  call void @llvm.lifetime.end.p0i8(i64 1000, i8* nonnull %7) #6
  call void @llvm.lifetime.end.p0i8(i64 1000000, i8* nonnull %6) #6
  call void @llvm.lifetime.end.p0i8(i64 5000, i8* nonnull %5) #6
  ret i32 0
}

; Function Attrs: argmemonly mustprogress nofree nosync nounwind willreturn
declare void @llvm.lifetime.start.p0i8(i64 immarg, i8* nocapture) #1

declare i32 @gets(...) local_unnamed_addr #2

; Function Attrs: argmemonly mustprogress nofree nounwind readonly willreturn
declare i64 @strlen(i8* nocapture) local_unnamed_addr #3

; Function Attrs: argmemonly mustprogress nofree nounwind readonly willreturn
declare i32 @strcmp(i8* nocapture, i8* nocapture) local_unnamed_addr #3

; Function Attrs: argmemonly mustprogress nofree nounwind willreturn
declare i8* @strcpy(i8* noalias returned writeonly, i8* noalias nocapture readonly) local_unnamed_addr #4

; Function Attrs: nofree nounwind
declare noundef i32 @printf(i8* nocapture noundef readonly, ...) local_unnamed_addr #5

; Function Attrs: argmemonly mustprogress nofree nosync nounwind willreturn
declare void @llvm.lifetime.end.p0i8(i64 immarg, i8* nocapture) #1


!llvm.module.flags = !{!0, !1, !2, !3}
!llvm.ident = !{!4}

!0 = !{i32 1, !"wchar_size", i32 4}
!1 = !{i32 7, !"PIC Level", i32 2}
!2 = !{i32 7, !"PIE Level", i32 2}
!3 = !{i32 7, !"uwtable", i32 1}
!4 = !{!"clang version 13.0.0"}
!5 = !{!6, !6, i64 0}
!6 = !{!"omnipotent char", !7, i64 0}
!7 = !{!"Simple C/C++ TBAA"}
!8 = distinct !{!8, !9}
!9 = !{!"llvm.loop.mustprogress"}
!10 = distinct !{!10, !9}
!11 = distinct !{!11, !9}
